; Function Attrs: nounwind uwtable
define void @Fxu_HeapSingleInsert(ptr noundef captures(none) %0, ptr noundef %1) local_unnamed_addr #8 {
  %3 = getelementptr inbounds nuw i8, ptr %0, i64 8
  %4 = load i32, ptr %3, align 8, !tbaa !13
  %5 = getelementptr inbounds nuw i8, ptr %0, i64 12
  %6 = load i32, ptr %5, align 4, !tbaa !3
  %7 = icmp eq i32 %4, %6
  %.pre = load ptr, ptr %0, align 8, !tbaa !10
  br i1 %7, label %8, label %18

8:                                                ; preds = %2
  %9 = shl nsw i32 %4, 1
  store i32 %9, ptr %5, align 4, !tbaa !3
  %.not.i = icmp eq ptr %.pre, null
  %10 = add nsw i32 %9, 10
  %11 = sext i32 %10 to i64
  %12 = shl nsw i64 %11, 3
  br i1 %.not.i, label %15, label %13

13:                                               ; preds = %8
  %14 = tail call ptr @realloc(ptr noundef nonnull %.pre, i64 noundef %12) #16
  %.pre11.pre = load i32, ptr %3, align 8, !tbaa !13
  br label %Fxu_HeapSingleResize.exit

15:                                               ; preds = %8
  %16 = tail call noalias ptr @malloc(i64 noundef %12) #14
  br label %Fxu_HeapSingleResize.exit

Fxu_HeapSingleResize.exit:                        ; preds = %13, %15
  %.pre11 = phi i32 [ %.pre11.pre, %13 ], [ %4, %15 ]
  %17 = phi ptr [ %14, %13 ], [ %16, %15 ]
  store ptr %17, ptr %0, align 8, !tbaa !10
  br label %18

18:                                               ; preds = %Fxu_HeapSingleResize.exit, %2
  %19 = phi i32 [ %.pre11, %Fxu_HeapSingleResize.exit ], [ %4, %2 ]
  %20 = phi ptr [ %17, %Fxu_HeapSingleResize.exit ], [ %.pre, %2 ]
  %21 = add nsw i32 %19, 1
  store i32 %21, ptr %3, align 8, !tbaa !13
  %22 = sext i32 %21 to i64
  %23 = getelementptr inbounds ptr, ptr %20, i64 %22
  store ptr %1, ptr %23, align 8, !tbaa !11
  %24 = getelementptr inbounds nuw i8, ptr %1, i64 4
  store i32 %21, ptr %24, align 4, !tbaa !21
  %25 = icmp sgt i32 %19, 0
  br i1 %25, label %.lr.ph.preheader.i, label %Fxu_HeapSingleMoveUp.exit

.lr.ph.preheader.i:                               ; preds = %18
  %.phi.trans.insert.i = getelementptr inbounds nuw i8, ptr %1, i64 8
  %.pre.i = load i32, ptr %.phi.trans.insert.i, align 8, !tbaa !17
  br label %.lr.ph.i

.lr.ph.i:                                         ; preds = %34, %.lr.ph.preheader.i
  %26 = phi i32 [ %37, %34 ], [ %21, %.lr.ph.preheader.i ]
  %.01.i = phi ptr [ %29, %34 ], [ %23, %.lr.ph.preheader.i ]
  %27 = lshr i32 %26, 1
  %28 = zext nneg i32 %27 to i64
  %29 = getelementptr inbounds nuw ptr, ptr %20, i64 %28
  %30 = load ptr, ptr %29, align 8, !tbaa !11
  %31 = getelementptr inbounds nuw i8, ptr %30, i64 8
  %32 = load i32, ptr %31, align 8, !tbaa !17
  %33 = icmp sgt i32 %.pre.i, %32
  br i1 %33, label %34, label %Fxu_HeapSingleMoveUp.exit

34:                                               ; preds = %.lr.ph.i
  store ptr %30, ptr %.01.i, align 8, !tbaa !11
  store ptr %1, ptr %29, align 8, !tbaa !11
  %35 = load ptr, ptr %.01.i, align 8, !tbaa !11
  %36 = getelementptr inbounds nuw i8, ptr %35, i64 4
  %37 = load i32, ptr %36, align 4, !tbaa !21
  store i32 %26, ptr %36, align 4, !tbaa !21
  store i32 %37, ptr %24, align 4, !tbaa !21
  %38 = icmp sgt i32 %37, 1
  br i1 %38, label %.lr.ph.i, label %Fxu_HeapSingleMoveUp.exit, !llvm.loop !22

Fxu_HeapSingleMoveUp.exit:                        ; preds = %.lr.ph.i, %34, %18
  ret void
}